target datalayout = "e-m:e-p270:32:32-p271:32:32-p272:64:64-i64:64-i128:128-f80:128-n8:16:32:64-S128"
target triple = "x86_64-pc-linux-gnu"

%struct.anon.40 = type { i8 }
%struct.anon.45 = type { i8 }
%"struct.hb::shared_ptr" = type { ptr }
%struct.hb_subset_input_t = type { %struct.hb_object_header_t, %union.anon, i32, i8, i8, %struct.hb_hashmap_t, %struct.hb_map_t }
%struct.hb_object_header_t = type { %struct.hb_reference_count_t, %struct.hb_atomic_int_t, %struct.hb_atomic_ptr_t }
%struct.hb_reference_count_t = type { %struct.hb_atomic_int_t }
%struct.hb_atomic_int_t = type { i32 }
%struct.hb_atomic_ptr_t = type { ptr }
%union.anon = type { %"struct.hb_subset_input_t::sets_t" }
%"struct.hb_subset_input_t::sets_t" = type { %"struct.hb::shared_ptr", %"struct.hb::shared_ptr", %"struct.hb::shared_ptr", %"struct.hb::shared_ptr", %"struct.hb::shared_ptr", %"struct.hb::shared_ptr", %"struct.hb::shared_ptr", %"struct.hb::shared_ptr" }
%struct.hb_hashmap_t = type { %struct.hb_object_header_t, i8, i16, i32, i32, i32, i32, ptr }
%struct.hb_map_t = type { %struct.hb_hashmap_t.0 }
%struct.hb_hashmap_t.0 = type { %struct.hb_object_header_t, i8, i16, i32, i32, i32, i32, ptr }
%struct.Triple = type { double, double, double }
%"struct.hb_hashmap_t<unsigned int, Triple>::item_t" = type { i32, i32, %struct.Triple }

@_ZL7hb_hash = internal constant %struct.anon.40 zeroinitializer, align 1
@_ZL8hb_deref = internal constant %struct.anon.45 zeroinitializer, align 1

; Function Attrs: mustprogress nounwind uwtable
define internal noundef nonnull align 4 dereferenceable(4) ptr @"_ZNK3$_5clIRKjEEDTclsr3stdE7forwardIT_Efp_EEOS3_"(ptr noundef nonnull align 1 dereferenceable(1) %0, ptr noundef nonnull align 4 dereferenceable(4) %1) #0 align 2 {
  %3 = alloca ptr, align 8
  %4 = alloca ptr, align 8
  store ptr %0, ptr %3, align 8, !tbaa !56
  store ptr %1, ptr %4, align 8, !tbaa !48
  %5 = load ptr, ptr %4, align 8, !tbaa !48
  ret ptr %5
}

; Function Attrs: mustprogress nounwind uwtable
define linkonce_odr dso_local noundef zeroext i1 @_ZNK12hb_hashmap_tIj6TripleLb0EE6item_t7is_realEv(ptr noundef nonnull align 8 dereferenceable(32) %0) #0 comdat align 2 {
  %2 = alloca ptr, align 8
  store ptr %0, ptr %2, align 8, !tbaa !97
  %3 = load ptr, ptr %2, align 8
  %4 = getelementptr inbounds nuw %"struct.hb_hashmap_t<unsigned int, Triple>::item_t", ptr %3, i32 0, i32 1
  %5 = load i32, ptr %4, align 4
  %6 = and i32 %5, 1
  %7 = icmp ne i32 %6, 0
  ret i1 %7
}

; Function Attrs: mustprogress nounwind uwtable
define linkonce_odr dso_local noundef zeroext i1 @_ZNK12hb_hashmap_tIj6TripleLb0EE6item_teqERKj(ptr noundef nonnull align 8 dereferenceable(32) %0, ptr noundef nonnull align 4 dereferenceable(4) %1) #0 comdat align 2 {
  %3 = alloca ptr, align 8
  %4 = alloca ptr, align 8
  store ptr %0, ptr %3, align 8, !tbaa !97
  store ptr %1, ptr %4, align 8, !tbaa !48
  %5 = load ptr, ptr %3, align 8
  %6 = getelementptr inbounds nuw %"struct.hb_hashmap_t<unsigned int, Triple>::item_t", ptr %5, i32 0, i32 0
  %7 = call noundef nonnull align 4 dereferenceable(4) ptr @"_ZNK3$_5clIRKjEEDTclsr3stdE7forwardIT_Efp_EEOS3_"(ptr noundef nonnull align 1 dereferenceable(1) @_ZL8hb_deref, ptr noundef nonnull align 4 dereferenceable(4) %6)
  %8 = load i32, ptr %7, align 4, !tbaa !43
  %9 = load ptr, ptr %4, align 8, !tbaa !48
  %10 = call noundef nonnull align 4 dereferenceable(4) ptr @"_ZNK3$_5clIRKjEEDTclsr3stdE7forwardIT_Efp_EEOS3_"(ptr noundef nonnull align 1 dereferenceable(1) @_ZL8hb_deref, ptr noundef nonnull align 4 dereferenceable(4) %9)
  %11 = load i32, ptr %10, align 4, !tbaa !43
  %12 = icmp eq i32 %8, %11
  ret i1 %12
}

; Function Attrs: mustprogress nounwind uwtable
define linkonce_odr dso_local noundef zeroext i1 @_ZNK12hb_hashmap_tIj6TripleLb0EE6item_t7is_usedEv(ptr noundef nonnull align 8 dereferenceable(32) %0) #0 comdat align 2 {
  %2 = alloca ptr, align 8
  store ptr %0, ptr %2, align 8, !tbaa !97
  %3 = load ptr, ptr %2, align 8
  %4 = getelementptr inbounds nuw %"struct.hb_hashmap_t<unsigned int, Triple>::item_t", ptr %3, i32 0, i32 1
  %5 = load i32, ptr %4, align 4
  %6 = lshr i32 %5, 1
  %7 = and i32 %6, 1
  %8 = icmp ne i32 %7, 0
  ret i1 %8
}

; Function Attrs: mustprogress nounwind uwtable
define internal noundef i32 @"_ZNK3$_34implIjTnPN12hb_enable_ifIXaasr3std11is_integralIT_EE5valuelestS2_Lm4EEvE4typeELPv0EEEN10_hb_head_tIjJDTmlcvjfp_Lj2654435761EEEE4typeERKS2_11hb_priorityILj1EE"(ptr noundef nonnull align 1 dereferenceable(1) %0, ptr noundef nonnull align 4 dereferenceable(4) %1) #0 align 2 {
  %3 = alloca ptr, align 8
  %4 = alloca ptr, align 8
  store ptr %0, ptr %3, align 8, !tbaa !56
  store ptr %1, ptr %4, align 8, !tbaa !48
  %5 = load ptr, ptr %4, align 8, !tbaa !48
  %6 = load i32, ptr %5, align 4, !tbaa !43
  %7 = mul i32 %6, -1640531535
  ret i32 %7
}

; Function Attrs: mustprogress nounwind uwtable
define linkonce_odr dso_local noundef ptr @_ZNK12hb_hashmap_tIj6TripleLb0EE10fetch_itemERKjj(ptr noundef nonnull align 8 dereferenceable(48) %0, ptr noundef nonnull align 4 dereferenceable(4) %1, i32 noundef %2) #0 comdat align 2 {
  %4 = alloca ptr, align 8
  %5 = alloca ptr, align 8
  %6 = alloca ptr, align 8
  %7 = alloca i32, align 4
  %8 = alloca i32, align 4
  %9 = alloca i32, align 4
  %10 = alloca i32, align 4
  store ptr %0, ptr %5, align 8, !tbaa !32
  store ptr %1, ptr %6, align 8, !tbaa !48
  store i32 %2, ptr %7, align 4, !tbaa !43
  %11 = load ptr, ptr %5, align 8
  %12 = load i32, ptr %7, align 4, !tbaa !43
  %13 = and i32 %12, 1073741823
  store i32 %13, ptr %7, align 4, !tbaa !43
  call void @llvm.lifetime.start.p0(i64 4, ptr %8) #13
  %14 = load i32, ptr %7, align 4, !tbaa !43
  %15 = getelementptr inbounds nuw %struct.hb_hashmap_t, ptr %11, i32 0, i32 6
  %16 = load i32, ptr %15, align 8, !tbaa !137
  %17 = urem i32 %14, %16
  store i32 %17, ptr %8, align 4, !tbaa !43
  call void @llvm.lifetime.start.p0(i64 4, ptr %9) #13
  store i32 0, ptr %9, align 4, !tbaa !43
  br label %18

18:                                               ; preds = %47, %3
  %19 = getelementptr inbounds nuw %struct.hb_hashmap_t, ptr %11, i32 0, i32 7
  %20 = load ptr, ptr %19, align 8, !tbaa !96
  %21 = load i32, ptr %8, align 4, !tbaa !43
  %22 = zext i32 %21 to i64
  %23 = getelementptr inbounds nuw %"struct.hb_hashmap_t<unsigned int, Triple>::item_t", ptr %20, i64 %22
  %24 = call noundef zeroext i1 @_ZNK12hb_hashmap_tIj6TripleLb0EE6item_t7is_usedEv(ptr noundef nonnull align 8 dereferenceable(32) %23)
  br i1 %24, label %25, label %55

25:                                               ; preds = %18
  %26 = getelementptr inbounds nuw %struct.hb_hashmap_t, ptr %11, i32 0, i32 7
  %27 = load ptr, ptr %26, align 8, !tbaa !96
  %28 = load i32, ptr %8, align 4, !tbaa !43
  %29 = zext i32 %28 to i64
  %30 = getelementptr inbounds nuw %"struct.hb_hashmap_t<unsigned int, Triple>::item_t", ptr %27, i64 %29
  %31 = load ptr, ptr %6, align 8, !tbaa !48
  %32 = call noundef zeroext i1 @_ZNK12hb_hashmap_tIj6TripleLb0EE6item_teqERKj(ptr noundef nonnull align 8 dereferenceable(32) %30, ptr noundef nonnull align 4 dereferenceable(4) %31)
  br i1 %32, label %33, label %47

33:                                               ; preds = %25
  %34 = getelementptr inbounds nuw %struct.hb_hashmap_t, ptr %11, i32 0, i32 7
  %35 = load ptr, ptr %34, align 8, !tbaa !96
  %36 = load i32, ptr %8, align 4, !tbaa !43
  %37 = zext i32 %36 to i64
  %38 = getelementptr inbounds nuw %"struct.hb_hashmap_t<unsigned int, Triple>::item_t", ptr %35, i64 %37
  %39 = call noundef zeroext i1 @_ZNK12hb_hashmap_tIj6TripleLb0EE6item_t7is_realEv(ptr noundef nonnull align 8 dereferenceable(32) %38)
  br i1 %39, label %40, label %46

40:                                               ; preds = %33
  %41 = getelementptr inbounds nuw %struct.hb_hashmap_t, ptr %11, i32 0, i32 7
  %42 = load ptr, ptr %41, align 8, !tbaa !96
  %43 = load i32, ptr %8, align 4, !tbaa !43
  %44 = zext i32 %43 to i64
  %45 = getelementptr inbounds nuw %"struct.hb_hashmap_t<unsigned int, Triple>::item_t", ptr %42, i64 %44
  store ptr %45, ptr %4, align 8
  store i32 1, ptr %10, align 4
  br label %56

46:                                               ; preds = %33
  store ptr null, ptr %4, align 8
  store i32 1, ptr %10, align 4
  br label %56

47:                                               ; preds = %25
  %48 = load i32, ptr %8, align 4, !tbaa !43
  %49 = load i32, ptr %9, align 4, !tbaa !43
  %50 = add i32 %49, 1
  store i32 %50, ptr %9, align 4, !tbaa !43
  %51 = add i32 %48, %50
  %52 = getelementptr inbounds nuw %struct.hb_hashmap_t, ptr %11, i32 0, i32 5
  %53 = load i32, ptr %52, align 4, !tbaa !136
  %54 = and i32 %51, %53
  store i32 %54, ptr %8, align 4, !tbaa !43
  br label %18, !llvm.loop !243

55:                                               ; preds = %18
  store ptr null, ptr %4, align 8
  store i32 1, ptr %10, align 4
  br label %56

56:                                               ; preds = %55, %46, %40
  call void @llvm.lifetime.end.p0(i64 4, ptr %9) #13
  call void @llvm.lifetime.end.p0(i64 4, ptr %8) #13
  %57 = load ptr, ptr %4, align 8
  ret ptr %57
}

; Function Attrs: mustprogress nounwind uwtable
define internal noundef i32 @"_ZNK3$_3clIjEEN10_hb_head_tIjJDTcl4implfp_cv11hb_priorityILj16EE_EEEEE4typeERKT_"(ptr noundef nonnull align 1 dereferenceable(1) %0, ptr noundef nonnull align 4 dereferenceable(4) %1) #0 align 2 {
  %3 = alloca ptr, align 8
  %4 = alloca ptr, align 8
  store ptr %0, ptr %3, align 8, !tbaa !56
  store ptr %1, ptr %4, align 8, !tbaa !48
  %5 = load ptr, ptr %3, align 8
  %6 = load ptr, ptr %4, align 8, !tbaa !48
  %7 = call noundef i32 @"_ZNK3$_34implIjTnPN12hb_enable_ifIXaasr3std11is_integralIT_EE5valuelestS2_Lm4EEvE4typeELPv0EEEN10_hb_head_tIjJDTmlcvjfp_Lj2654435761EEEE4typeERKS2_11hb_priorityILj1EE"(ptr noundef nonnull align 1 dereferenceable(1) %5, ptr noundef nonnull align 4 dereferenceable(4) %6)
  ret i32 %7
}

; Function Attrs: mustprogress nounwind uwtable
define linkonce_odr dso_local noundef zeroext i1 @_ZNK12hb_hashmap_tIj6TripleLb0EE3hasIS0_EEbRKjPPT_(ptr noundef nonnull align 8 dereferenceable(48) %0, ptr noundef nonnull align 4 dereferenceable(4) %1, ptr noundef %2) #0 comdat align 2 {
  %4 = alloca i1, align 1
  %5 = alloca ptr, align 8
  %6 = alloca ptr, align 8
  %7 = alloca ptr, align 8
  %8 = alloca ptr, align 8
  %9 = alloca i32, align 4
  store ptr %0, ptr %5, align 8, !tbaa !32
  store ptr %1, ptr %6, align 8, !tbaa !48
  store ptr %2, ptr %7, align 8, !tbaa !93
  %10 = load ptr, ptr %5, align 8
  %11 = getelementptr inbounds nuw %struct.hb_hashmap_t, ptr %10, i32 0, i32 7
  %12 = load ptr, ptr %11, align 8, !tbaa !96
  %13 = icmp ne ptr %12, null
  br i1 %13, label %15, label %14

14:                                               ; preds = %3
  store i1 false, ptr %4, align 1
  br label %32

15:                                               ; preds = %3
  call void @llvm.lifetime.start.p0(i64 8, ptr %8) #13
  %16 = load ptr, ptr %6, align 8, !tbaa !48
  %17 = load ptr, ptr %6, align 8, !tbaa !48
  %18 = call noundef i32 @"_ZNK3$_3clIjEEN10_hb_head_tIjJDTcl4implfp_cv11hb_priorityILj16EE_EEEEE4typeERKT_"(ptr noundef nonnull align 1 dereferenceable(1) @_ZL7hb_hash, ptr noundef nonnull align 4 dereferenceable(4) %17)
  %19 = call noundef ptr @_ZNK12hb_hashmap_tIj6TripleLb0EE10fetch_itemERKjj(ptr noundef nonnull align 8 dereferenceable(48) %10, ptr noundef nonnull align 4 dereferenceable(4) %16, i32 noundef %18)
  store ptr %19, ptr %8, align 8, !tbaa !97
  %20 = load ptr, ptr %8, align 8, !tbaa !97
  %21 = icmp ne ptr %20, null
  br i1 %21, label %22, label %30

22:                                               ; preds = %15
  %23 = load ptr, ptr %7, align 8, !tbaa !93
  %24 = icmp ne ptr %23, null
  br i1 %24, label %25, label %29

25:                                               ; preds = %22
  %26 = load ptr, ptr %8, align 8, !tbaa !97
  %27 = getelementptr inbounds nuw %"struct.hb_hashmap_t<unsigned int, Triple>::item_t", ptr %26, i32 0, i32 2
  %28 = load ptr, ptr %7, align 8, !tbaa !93
  store ptr %27, ptr %28, align 8, !tbaa !77
  br label %29

29:                                               ; preds = %25, %22
  store i1 true, ptr %4, align 1
  store i32 1, ptr %9, align 4
  br label %31

30:                                               ; preds = %15
  store i1 false, ptr %4, align 1
  store i32 1, ptr %9, align 4
  br label %31

31:                                               ; preds = %30, %29
  call void @llvm.lifetime.end.p0(i64 8, ptr %8) #13
  br label %32

32:                                               ; preds = %31, %14
  %33 = load i1, ptr %4, align 1
  ret i1 %33
}

; Function Attrs: mustprogress nounwind uwtable
define dso_local i32 @hb_subset_input_get_axis_range(ptr noundef %0, i32 noundef %1, ptr noundef %2, ptr noundef %3, ptr noundef %4) #0 {
  %6 = alloca i32, align 4
  %7 = alloca ptr, align 8
  %8 = alloca i32, align 4
  %9 = alloca ptr, align 8
  %10 = alloca ptr, align 8
  %11 = alloca ptr, align 8
  %12 = alloca ptr, align 8
  %13 = alloca i32, align 4
  store ptr %0, ptr %7, align 8, !tbaa !4
  store i32 %1, ptr %8, align 4, !tbaa !43
  store ptr %2, ptr %9, align 8, !tbaa !91
  store ptr %3, ptr %10, align 8, !tbaa !91
  store ptr %4, ptr %11, align 8, !tbaa !91
  call void @llvm.lifetime.start.p0(i64 8, ptr %12) #13
  %14 = load ptr, ptr %7, align 8, !tbaa !4
  %15 = getelementptr inbounds nuw %struct.hb_subset_input_t, ptr %14, i32 0, i32 5
  %16 = call noundef zeroext i1 @_ZNK12hb_hashmap_tIj6TripleLb0EE3hasIS0_EEbRKjPPT_(ptr noundef nonnull align 8 dereferenceable(48) %15, ptr noundef nonnull align 4 dereferenceable(4) %8, ptr noundef %12)
  br i1 %16, label %18, label %17

17:                                               ; preds = %5
  store i32 0, ptr %6, align 4
  store i32 1, ptr %13, align 4
  br label %34

18:                                               ; preds = %5
  %19 = load ptr, ptr %12, align 8, !tbaa !77
  %20 = getelementptr inbounds nuw %struct.Triple, ptr %19, i32 0, i32 0
  %21 = load double, ptr %20, align 8, !tbaa !82
  %22 = fptrunc double %21 to float
  %23 = load ptr, ptr %9, align 8, !tbaa !91
  store float %22, ptr %23, align 4, !tbaa !86
  %24 = load ptr, ptr %12, align 8, !tbaa !77
  %25 = getelementptr inbounds nuw %struct.Triple, ptr %24, i32 0, i32 1
  %26 = load double, ptr %25, align 8, !tbaa !84
  %27 = fptrunc double %26 to float
  %28 = load ptr, ptr %11, align 8, !tbaa !91
  store float %27, ptr %28, align 4, !tbaa !86
  %29 = load ptr, ptr %12, align 8, !tbaa !77
  %30 = getelementptr inbounds nuw %struct.Triple, ptr %29, i32 0, i32 2
  %31 = load double, ptr %30, align 8, !tbaa !85
  %32 = fptrunc double %31 to float
  %33 = load ptr, ptr %10, align 8, !tbaa !91
  store float %32, ptr %33, align 4, !tbaa !86
  store i32 1, ptr %6, align 4
  store i32 1, ptr %13, align 4
  br label %34

34:                                               ; preds = %18, %17
  call void @llvm.lifetime.end.p0(i64 8, ptr %12) #13
  %35 = load i32, ptr %6, align 4
  ret i32 %35
}