; Function Attrs: mustprogress nofree norecurse nosync nounwind memory(read, argmem: readwrite, inaccessiblemem: none) uwtable
define dso_local range(i32 0, 2) i32 @hb_subset_input_get_axis_range(ptr noundef readonly captures(none) %0, i32 noundef %1, ptr noundef writeonly captures(none) %2, ptr noundef writeonly captures(none) %3, ptr noundef writeonly captures(none) %4) local_unnamed_addr #10 {
  %6 = getelementptr inbounds nuw i8, ptr %0, i64 128
  %7 = load ptr, ptr %6, align 8, !tbaa !24
  %.not.i = icmp eq ptr %7, null
  br i1 %.not.i, label %_ZNK12hb_hashmap_tIj6TripleLb0EE3hasIS0_EEbRKjPPT_.exit.thread, label %8

8:                                                ; preds = %5
  %9 = mul i32 %1, 506952113
  %10 = and i32 %9, 1073741823
  %11 = getelementptr inbounds nuw i8, ptr %0, i64 120
  %12 = load i32, ptr %11, align 8, !tbaa !84
  %13 = urem i32 %10, %12
  %14 = zext nneg i32 %13 to i64
  %15 = getelementptr inbounds nuw %"struct.hb_hashmap_t<unsigned int, Triple>::item_t", ptr %7, i64 %14
  %16 = getelementptr inbounds nuw i8, ptr %15, i64 4
  %17 = load i32, ptr %16, align 4
  %18 = and i32 %17, 2
  %.not16.i.i = icmp eq i32 %18, 0
  br i1 %.not16.i.i, label %_ZNK12hb_hashmap_tIj6TripleLb0EE3hasIS0_EEbRKjPPT_.exit.thread, label %.lr.ph.i.i

.lr.ph.i.i:                                       ; preds = %8
  %19 = getelementptr inbounds nuw i8, ptr %0, i64 116
  %20 = load i32, ptr %19, align 4
  %21 = load i32, ptr %15, align 4, !tbaa !52
  %22 = icmp eq i32 %21, %1
  br i1 %22, label %_ZNK12hb_hashmap_tIj6TripleLb0EE10fetch_itemERKjj.exit.i, label %.lr.ph.i

23:                                               ; preds = %.lr.ph.i
  %24 = load i32, ptr %30, align 4, !tbaa !52
  %25 = icmp eq i32 %24, %1
  br i1 %25, label %_ZNK12hb_hashmap_tIj6TripleLb0EE10fetch_itemERKjj.exit.i, label %.lr.ph.i, !llvm.loop !85

.lr.ph.i:                                         ; preds = %.lr.ph.i.i, %23
  %.01017.i21.i = phi i32 [ %28, %23 ], [ %13, %.lr.ph.i.i ]
  %.018.i20.i = phi i32 [ %26, %23 ], [ 0, %.lr.ph.i.i ]
  %26 = add i32 %.018.i20.i, 1
  %27 = add i32 %26, %.01017.i21.i
  %28 = and i32 %27, %20
  %29 = zext i32 %28 to i64
  %30 = getelementptr inbounds nuw %"struct.hb_hashmap_t<unsigned int, Triple>::item_t", ptr %7, i64 %29
  %31 = getelementptr inbounds nuw i8, ptr %30, i64 4
  %32 = load i32, ptr %31, align 4
  %33 = and i32 %32, 2
  %.not.i.i = icmp eq i32 %33, 0
  br i1 %.not.i.i, label %_ZNK12hb_hashmap_tIj6TripleLb0EE3hasIS0_EEbRKjPPT_.exit.thread, label %23, !llvm.loop !85

_ZNK12hb_hashmap_tIj6TripleLb0EE10fetch_itemERKjj.exit.i: ; preds = %23, %.lr.ph.i.i
  %.lcssa18.i = phi i32 [ %17, %.lr.ph.i.i ], [ %32, %23 ]
  %34 = phi i64 [ %14, %.lr.ph.i.i ], [ %29, %23 ]
  %35 = and i32 %.lcssa18.i, 1
  %.not12.i.i.not = icmp eq i32 %35, 0
  br i1 %.not12.i.i.not, label %_ZNK12hb_hashmap_tIj6TripleLb0EE3hasIS0_EEbRKjPPT_.exit.thread, label %36

36:                                               ; preds = %_ZNK12hb_hashmap_tIj6TripleLb0EE10fetch_itemERKjj.exit.i
  %37 = getelementptr inbounds nuw %"struct.hb_hashmap_t<unsigned int, Triple>::item_t", ptr %7, i64 %34, i32 2
  %38 = load double, ptr %37, align 8, !tbaa !76
  %39 = fptrunc double %38 to float
  store float %39, ptr %2, align 4, !tbaa !86
  %40 = getelementptr inbounds nuw i8, ptr %37, i64 8
  %41 = load double, ptr %40, align 8, !tbaa !79
  %42 = fptrunc double %41 to float
  store float %42, ptr %4, align 4, !tbaa !86
  %43 = getelementptr inbounds nuw i8, ptr %37, i64 16
  %44 = load double, ptr %43, align 8, !tbaa !80
  %45 = fptrunc double %44 to float
  store float %45, ptr %3, align 4, !tbaa !86
  br label %_ZNK12hb_hashmap_tIj6TripleLb0EE3hasIS0_EEbRKjPPT_.exit.thread

_ZNK12hb_hashmap_tIj6TripleLb0EE3hasIS0_EEbRKjPPT_.exit.thread: ; preds = %.lr.ph.i, %8, %_ZNK12hb_hashmap_tIj6TripleLb0EE10fetch_itemERKjj.exit.i, %5, %36
  %.0 = phi i32 [ 1, %36 ], [ 0, %5 ], [ 0, %_ZNK12hb_hashmap_tIj6TripleLb0EE10fetch_itemERKjj.exit.i ], [ 0, %8 ], [ 0, %.lr.ph.i ]
  ret i32 %.0
}